target datalayout = "e-m:e-p270:32:32-p271:32:32-p272:64:64-i64:64-i128:128-f80:128-n8:16:32:64-S128"
target triple = "x86_64-pc-linux-gnu"

%struct.AVCodecContext = type { ptr, i32, i32, ptr, i32, i32, ptr, ptr, ptr, i64, i32, i32, ptr, i32, %struct.AVRational, %struct.AVRational, %struct.AVRational, i32, i32, i32, i32, i32, %struct.AVRational, i32, i32, i32, i32, i32, i32, i32, i32, i32, i32, i32, ptr, ptr, i32, float, float, float, float, float, float, float, float, float, i32, i32, i32, i32, i32, i32, i32, i32, i32, i32, i32, i32, ptr, ptr, ptr, i32, i32, i32, i32, i32, i32, i32, i32, i32, i32, %struct.AVChannelLayout, i32, i32, i32, i32, i32, i32, i32, i32, ptr, i32, i32, i32, float, float, i32, i32, i32, i32, i32, ptr, i64, i64, float, float, i32, i32, ptr, ptr, i32, i32, i32, i32, i32, ptr, ptr, ptr, ptr, i32, i32, [8 x i64], i32, i32, i32, i32, i32, i32, i32, ptr, ptr, i32, i32, i32, i32, i32, i32, i32, i32, i32, i32, ptr, ptr, i32, i32, ptr, ptr, ptr, ptr, i32, i32, i64, i32, i32, i64, ptr, i64, ptr, i32, ptr, i32 }
%struct.AVRational = type { i32, i32 }
%struct.AVChannelLayout = type { i32, i32, %union.anon, ptr }
%union.anon = type { i64 }
%struct.AVCodecInternal = type { i32, i32, i32, ptr, ptr, ptr, ptr, ptr, ptr, ptr, i32, ptr, ptr, ptr, i32, i32, ptr, i32, ptr, ptr, i32, i32 }
%struct.ThreadContext = type { ptr, %union.pthread_mutex_t, %union.pthread_cond_t, i32, i32, [66 x %struct.Task], %union.pthread_mutex_t, %union.pthread_cond_t, i32, i32, i32, [64 x i64], i32 }
%struct.Task = type { ptr, ptr, i32, i32, i32 }
%union.pthread_mutex_t = type { %struct.__pthread_mutex_s }
%struct.__pthread_mutex_s = type { i32, i32, i32, i32, i32, i16, i16, %struct.__pthread_internal_list }
%struct.__pthread_internal_list = type { ptr, ptr }
%union.pthread_cond_t = type { %struct.__pthread_cond_s }
%struct.__pthread_cond_s = type { %union.__atomic_wide_counter, %union.__atomic_wide_counter, [2 x i32], [2 x i32], i32, i32, [2 x i32] }
%union.__atomic_wide_counter = type { i64 }

; Function Attrs: nounwind uwtable
define internal ptr @worker(ptr noundef %0) #5 {
  %2 = alloca ptr, align 8
  %3 = alloca ptr, align 8
  %4 = alloca ptr, align 8
  %5 = alloca ptr, align 8
  %6 = alloca i32, align 4
  %7 = alloca i32, align 4
  %8 = alloca ptr, align 8
  %9 = alloca ptr, align 8
  %10 = alloca ptr, align 8
  %11 = alloca i32, align 4
  %12 = alloca i32, align 4
  %13 = alloca i32, align 4
  %14 = alloca i32, align 4
  store ptr %0, ptr %3, align 8, !tbaa !51
  call void @llvm.lifetime.start.p0(i64 8, ptr %4) #6
  %15 = load ptr, ptr %3, align 8, !tbaa !51
  store ptr %15, ptr %4, align 8, !tbaa !4
  call void @llvm.lifetime.start.p0(i64 8, ptr %5) #6
  %16 = load ptr, ptr %4, align 8, !tbaa !4
  %17 = getelementptr inbounds nuw %struct.AVCodecContext, ptr %16, i32 0, i32 7
  %18 = load ptr, ptr %17, align 8, !tbaa !43
  %19 = getelementptr inbounds nuw %struct.AVCodecInternal, ptr %18, i32 0, i32 11
  %20 = load ptr, ptr %19, align 8, !tbaa !44
  store ptr %20, ptr %5, align 8, !tbaa !51
  br label %21

21:                                               ; preds = %114, %1
  %22 = load ptr, ptr %5, align 8, !tbaa !51
  %23 = getelementptr inbounds nuw %struct.ThreadContext, ptr %22, i32 0, i32 12
  %24 = load atomic i32, ptr %23 seq_cst, align 8
  store i32 %24, ptr %6, align 4
  %25 = load i32, ptr %6, align 4, !tbaa !9
  %26 = icmp ne i32 %25, 0
  %27 = xor i1 %26, true
  br i1 %27, label %28, label %115

28:                                               ; preds = %21
  call void @llvm.lifetime.start.p0(i64 4, ptr %7) #6
  call void @llvm.lifetime.start.p0(i64 8, ptr %8) #6
  call void @llvm.lifetime.start.p0(i64 8, ptr %9) #6
  call void @llvm.lifetime.start.p0(i64 8, ptr %10) #6
  call void @llvm.lifetime.start.p0(i64 4, ptr %11) #6
  %29 = load ptr, ptr %5, align 8, !tbaa !51
  %30 = getelementptr inbounds nuw %struct.ThreadContext, ptr %29, i32 0, i32 1
  %31 = call i32 @pthread_mutex_lock(ptr noundef %30) #6
  br label %32

32:                                               ; preds = %58, %28
  %33 = load ptr, ptr %5, align 8, !tbaa !51
  %34 = getelementptr inbounds nuw %struct.ThreadContext, ptr %33, i32 0, i32 8
  %35 = load i32, ptr %34, align 8, !tbaa !72
  %36 = load ptr, ptr %5, align 8, !tbaa !51
  %37 = getelementptr inbounds nuw %struct.ThreadContext, ptr %36, i32 0, i32 9
  %38 = load i32, ptr %37, align 4, !tbaa !73
  %39 = icmp eq i32 %35, %38
  br i1 %39, label %46, label %40

40:                                               ; preds = %32
  %41 = load ptr, ptr %5, align 8, !tbaa !51
  %42 = getelementptr inbounds nuw %struct.ThreadContext, ptr %41, i32 0, i32 12
  %43 = load atomic i32, ptr %42 seq_cst, align 8
  store i32 %43, ptr %12, align 4
  %44 = load i32, ptr %12, align 4, !tbaa !9
  %45 = icmp ne i32 %44, 0
  br label %46

46:                                               ; preds = %40, %32
  %47 = phi i1 [ true, %32 ], [ %45, %40 ]
  br i1 %47, label %48, label %64

48:                                               ; preds = %46
  %49 = load ptr, ptr %5, align 8, !tbaa !51
  %50 = getelementptr inbounds nuw %struct.ThreadContext, ptr %49, i32 0, i32 12
  %51 = load atomic i32, ptr %50 seq_cst, align 8
  store i32 %51, ptr %13, align 4
  %52 = load i32, ptr %13, align 4, !tbaa !9
  %53 = icmp ne i32 %52, 0
  br i1 %53, label %54, label %58

54:                                               ; preds = %48
  %55 = load ptr, ptr %5, align 8, !tbaa !51
  %56 = getelementptr inbounds nuw %struct.ThreadContext, ptr %55, i32 0, i32 1
  %57 = call i32 @pthread_mutex_unlock(ptr noundef %56) #6
  store i32 6, ptr %14, align 4
  br label %112

58:                                               ; preds = %48
  %59 = load ptr, ptr %5, align 8, !tbaa !51
  %60 = getelementptr inbounds nuw %struct.ThreadContext, ptr %59, i32 0, i32 2
  %61 = load ptr, ptr %5, align 8, !tbaa !51
  %62 = getelementptr inbounds nuw %struct.ThreadContext, ptr %61, i32 0, i32 1
  %63 = call i32 @pthread_cond_wait(ptr noundef %60, ptr noundef %62)
  br label %32, !llvm.loop !74

64:                                               ; preds = %46
  %65 = load ptr, ptr %5, align 8, !tbaa !51
  %66 = getelementptr inbounds nuw %struct.ThreadContext, ptr %65, i32 0, i32 8
  %67 = load i32, ptr %66, align 8, !tbaa !72
  store i32 %67, ptr %11, align 4, !tbaa !9
  %68 = load ptr, ptr %5, align 8, !tbaa !51
  %69 = getelementptr inbounds nuw %struct.ThreadContext, ptr %68, i32 0, i32 8
  %70 = load i32, ptr %69, align 8, !tbaa !72
  %71 = add i32 %70, 1
  %72 = load ptr, ptr %5, align 8, !tbaa !51
  %73 = getelementptr inbounds nuw %struct.ThreadContext, ptr %72, i32 0, i32 4
  %74 = load i32, ptr %73, align 4, !tbaa !55
  %75 = urem i32 %71, %74
  %76 = load ptr, ptr %5, align 8, !tbaa !51
  %77 = getelementptr inbounds nuw %struct.ThreadContext, ptr %76, i32 0, i32 8
  store i32 %75, ptr %77, align 8, !tbaa !72
  %78 = load ptr, ptr %5, align 8, !tbaa !51
  %79 = getelementptr inbounds nuw %struct.ThreadContext, ptr %78, i32 0, i32 1
  %80 = call i32 @pthread_mutex_unlock(ptr noundef %79) #6
  %81 = load ptr, ptr %5, align 8, !tbaa !51
  %82 = getelementptr inbounds nuw %struct.ThreadContext, ptr %81, i32 0, i32 5
  %83 = load i32, ptr %11, align 4, !tbaa !9
  %84 = zext i32 %83 to i64
  %85 = getelementptr inbounds nuw [66 x %struct.Task], ptr %82, i64 0, i64 %84
  store ptr %85, ptr %10, align 8, !tbaa !51
  %86 = load ptr, ptr %10, align 8, !tbaa !51
  %87 = getelementptr inbounds nuw %struct.Task, ptr %86, i32 0, i32 0
  %88 = load ptr, ptr %87, align 8, !tbaa !56
  store ptr %88, ptr %9, align 8, !tbaa !75
  %89 = load ptr, ptr %10, align 8, !tbaa !51
  %90 = getelementptr inbounds nuw %struct.Task, ptr %89, i32 0, i32 1
  %91 = load ptr, ptr %90, align 8, !tbaa !58
  store ptr %91, ptr %8, align 8, !tbaa !76
  %92 = load ptr, ptr %4, align 8, !tbaa !4
  %93 = load ptr, ptr %8, align 8, !tbaa !76
  %94 = load ptr, ptr %9, align 8, !tbaa !75
  %95 = load ptr, ptr %10, align 8, !tbaa !51
  %96 = getelementptr inbounds nuw %struct.Task, ptr %95, i32 0, i32 4
  %97 = call i32 @ff_encode_encode_cb(ptr noundef %92, ptr noundef %93, ptr noundef %94, ptr noundef %96)
  store i32 %97, ptr %7, align 4, !tbaa !9
  %98 = load ptr, ptr %5, align 8, !tbaa !51
  %99 = getelementptr inbounds nuw %struct.ThreadContext, ptr %98, i32 0, i32 6
  %100 = call i32 @pthread_mutex_lock(ptr noundef %99) #6
  %101 = load i32, ptr %7, align 4, !tbaa !9
  %102 = load ptr, ptr %10, align 8, !tbaa !51
  %103 = getelementptr inbounds nuw %struct.Task, ptr %102, i32 0, i32 2
  store i32 %101, ptr %103, align 8, !tbaa !77
  %104 = load ptr, ptr %10, align 8, !tbaa !51
  %105 = getelementptr inbounds nuw %struct.Task, ptr %104, i32 0, i32 3
  store i32 1, ptr %105, align 4, !tbaa !78
  %106 = load ptr, ptr %5, align 8, !tbaa !51
  %107 = getelementptr inbounds nuw %struct.ThreadContext, ptr %106, i32 0, i32 7
  %108 = call i32 @pthread_cond_signal(ptr noundef %107) #6
  %109 = load ptr, ptr %5, align 8, !tbaa !51
  %110 = getelementptr inbounds nuw %struct.ThreadContext, ptr %109, i32 0, i32 6
  %111 = call i32 @pthread_mutex_unlock(ptr noundef %110) #6
  store i32 0, ptr %14, align 4
  br label %112

112:                                              ; preds = %54, %64
  call void @llvm.lifetime.end.p0(i64 4, ptr %11) #6
  call void @llvm.lifetime.end.p0(i64 8, ptr %10) #6
  call void @llvm.lifetime.end.p0(i64 8, ptr %9) #6
  call void @llvm.lifetime.end.p0(i64 8, ptr %8) #6
  call void @llvm.lifetime.end.p0(i64 4, ptr %7) #6
  %113 = load i32, ptr %14, align 4
  switch i32 %113, label %117 [
    i32 0, label %114
    i32 6, label %116
  ]

114:                                              ; preds = %112
  br label %21, !llvm.loop !79

115:                                              ; preds = %21
  br label %116

116:                                              ; preds = %115, %112
  call void @avcodec_free_context(ptr noundef %4)
  store ptr null, ptr %2, align 8
  store i32 1, ptr %14, align 4
  br label %117

117:                                              ; preds = %116, %112
  call void @llvm.lifetime.end.p0(i64 8, ptr %5) #6
  call void @llvm.lifetime.end.p0(i64 8, ptr %4) #6
  %118 = load ptr, ptr %2, align 8
  ret ptr %118
}