; Function Attrs: nounwind uwtable
define internal noalias noundef ptr @worker(ptr noundef %0) #5 {
  %2 = alloca ptr, align 8
  call void @llvm.lifetime.start.p0(i64 8, ptr nonnull %2) #7
  store ptr %0, ptr %2, align 8, !tbaa !4
  %3 = getelementptr inbounds nuw i8, ptr %0, i64 40
  %4 = load ptr, ptr %3, align 8, !tbaa !41
  %5 = getelementptr inbounds nuw i8, ptr %4, i64 80
  %6 = load ptr, ptr %5, align 8, !tbaa !42
  %7 = getelementptr inbounds nuw i8, ptr %6, i64 2832
  %8 = load atomic i32, ptr %7 seq_cst, align 8
  %.not37 = icmp eq i32 %8, 0
  br i1 %.not37, label %.lr.ph, label %.loopexit

.lr.ph:                                           ; preds = %1
  %9 = getelementptr inbounds nuw i8, ptr %6, i64 8
  %10 = getelementptr inbounds nuw i8, ptr %6, i64 2304
  %11 = getelementptr inbounds nuw i8, ptr %6, i64 2308
  %12 = getelementptr inbounds nuw i8, ptr %6, i64 48
  %13 = getelementptr inbounds nuw i8, ptr %6, i64 100
  %14 = getelementptr inbounds nuw i8, ptr %6, i64 104
  %15 = getelementptr inbounds nuw i8, ptr %6, i64 2216
  %16 = getelementptr inbounds nuw i8, ptr %6, i64 2256
  br label %17

17:                                               ; preds = %.lr.ph, %29
  %18 = tail call i32 @pthread_mutex_lock(ptr noundef nonnull %9) #7
  br label %19

19:                                               ; preds = %27, %17
  %20 = load i32, ptr %10, align 8, !tbaa !69
  %21 = load i32, ptr %11, align 4, !tbaa !70
  %22 = icmp eq i32 %20, %21
  br i1 %22, label %.critedge, label %23

23:                                               ; preds = %19
  %24 = load atomic i32, ptr %7 seq_cst, align 8
  %.not32 = icmp eq i32 %24, 0
  br i1 %.not32, label %29, label %.critedge

.critedge:                                        ; preds = %19, %23
  %25 = load atomic i32, ptr %7 seq_cst, align 8
  %.not33 = icmp eq i32 %25, 0
  br i1 %.not33, label %27, label %.thread

.thread:                                          ; preds = %.critedge
  %26 = tail call i32 @pthread_mutex_unlock(ptr noundef nonnull %9) #7
  br label %.loopexit

27:                                               ; preds = %.critedge
  %28 = tail call i32 @pthread_cond_wait(ptr noundef nonnull %12, ptr noundef nonnull %9) #7
  br label %19, !llvm.loop !71

29:                                               ; preds = %23
  %30 = load i32, ptr %10, align 8, !tbaa !69
  %31 = add i32 %30, 1
  %32 = load i32, ptr %13, align 4, !tbaa !52
  %33 = urem i32 %31, %32
  store i32 %33, ptr %10, align 8, !tbaa !69
  %34 = tail call i32 @pthread_mutex_unlock(ptr noundef nonnull %9) #7
  %35 = zext i32 %30 to i64
  %36 = getelementptr inbounds nuw [66 x %struct.Task], ptr %14, i64 0, i64 %35
  %37 = load ptr, ptr %36, align 8, !tbaa !55
  %38 = getelementptr inbounds nuw i8, ptr %36, i64 8
  %39 = load ptr, ptr %38, align 8, !tbaa !57
  %40 = load ptr, ptr %2, align 8, !tbaa !4
  %41 = getelementptr inbounds nuw i8, ptr %36, i64 24
  %42 = tail call i32 @ff_encode_encode_cb(ptr noundef %40, ptr noundef %39, ptr noundef %37, ptr noundef nonnull %41) #7
  %43 = tail call i32 @pthread_mutex_lock(ptr noundef nonnull %15) #7
  %44 = getelementptr inbounds nuw i8, ptr %36, i64 16
  store i32 %42, ptr %44, align 8, !tbaa !72
  %45 = getelementptr inbounds nuw i8, ptr %36, i64 20
  store i32 1, ptr %45, align 4, !tbaa !73
  %46 = tail call i32 @pthread_cond_signal(ptr noundef nonnull %16) #7
  %47 = tail call i32 @pthread_mutex_unlock(ptr noundef nonnull %15) #7
  %48 = load atomic i32, ptr %7 seq_cst, align 8
  %.not = icmp eq i32 %48, 0
  br i1 %.not, label %17, label %.loopexit

.loopexit:                                        ; preds = %29, %1, %.thread
  call void @avcodec_free_context(ptr noundef nonnull %2) #7
  call void @llvm.lifetime.end.p0(i64 8, ptr nonnull %2) #7
  ret ptr null
}